EXPORTS
    _ZN9ImageLite14ImageRGBbuffer10getimgtypeERKSt17basic_string_viewIcSt11char_traitsIcEE @1
    _ZN9ImageLite14ImageRGBbuffer11_set_strideEv @2
    _ZN9ImageLite14ImageRGBbuffer12getbmpheaderEv @3
    _ZN9ImageLite14ImageRGBbuffer16getbmpfileheaderEj @4
    _ZN9ImageLite14ImageRGBbuffer17_check_buffer_posEj @5
    _ZN9ImageLite14ImageRGBbuffer2bwEv @6
    _ZN9ImageLite14ImageRGBbuffer4greyEv @7
    _ZN9ImageLite14ImageRGBbuffer4loadERKSt17basic_string_viewIcSt11char_traitsIcEENS_9ImageTypeE @8
    _ZN9ImageLite14ImageRGBbuffer4saveERKSt17basic_string_viewIcSt11char_traitsIcEENS_9ImageTypeE @9
    _ZN9ImageLite14ImageRGBbuffer5emptyEv @10
    _ZN9ImageLite14ImageRGBbuffer5ispadEi @11
    _ZN9ImageLite14ImageRGBbuffer5sepiaEv @12
    _ZN9ImageLite14ImageRGBbuffer6getbmpEv @13
    _ZN9ImageLite14ImageRGBbuffer6getpadEv @14
    _ZN9ImageLite14ImageRGBbuffer6getposERKNS_6IPOINTIiEE @15
    _ZN9ImageLite14ImageRGBbuffer6getposEii @16
    _ZN9ImageLite14ImageRGBbuffer7getsizeENS_8SizeTypeE @17
    _ZN9ImageLite14ImageRGBbuffer8getpixelERKNS_6IPOINTIiEE @18
    _ZN9ImageLite14ImageRGBbuffer8getpixelEi @19
    _ZN9ImageLite14ImageRGBbuffer8getpixelEii @20
    _ZN9ImageLite14ImageRGBbuffer8icompareERKNS_9ImageDataERKNS_5IRECTIiEEh @21
    _ZN9ImageLite14ImageRGBbuffer8icompareERKNS_9ImageDataEh @22
    _ZN9ImageLite14ImageRGBbuffer8icompareERNS_10ImageTableEh @23
    _ZN9ImageLite14ImageRGBbuffer8icompareERS0_RKNS_5IRECTIiEEh @24
    _ZN9ImageLite14ImageRGBbuffer8icompareERS0_h @25
    _ZN9ImageLite14ImageRGBbuffer8load_rawERKSt17basic_string_viewIcSt11char_traitsIcEEjjj @26
    _ZN9ImageLite14ImageRGBbuffer9getbufferEv @27
    _ZN9ImageLite14ImageRGBbufferC1EPKhjjjjNS_10BufferTypeE @28
    _ZN9ImageLite14ImageRGBbufferC1ERKNS_10ImageTableENS_10BufferTypeE @29
    _ZN9ImageLite14ImageRGBbufferC1ERKNS_9ImageDataENS_10BufferTypeE @30
    _ZN9ImageLite14ImageRGBbufferC1ERKNS_9ImageDataERKNS_5IRECTIiEENS_10BufferTypeE @31
    _ZN9ImageLite14ImageRGBbufferC1ERKNS_9ImageDataERKNS_6IPOINTIiEENS_10BufferTypeE @32
    _ZN9ImageLite14ImageRGBbufferC1ERKSt17basic_string_viewIcSt11char_traitsIcEENS_9ImageTypeE @33
    _ZN9ImageLite14ImageRGBbufferC1ERKSt17basic_string_viewIcSt11char_traitsIcEEjjjNS_10BufferTypeE @34
    _ZN9ImageLite14ImageRGBbufferC1ERKSt6vectorIhSaIhEEjjjNS_10BufferTypeE @35
    _ZN9ImageLite14ImageRGBbufferC1Ev @36
    _ZN9ImageLite14ImageRGBbufferC2EPKhjjjjNS_10BufferTypeE @37
    _ZN9ImageLite14ImageRGBbufferC2ERKNS_10ImageTableENS_10BufferTypeE @38
    _ZN9ImageLite14ImageRGBbufferC2ERKNS_9ImageDataENS_10BufferTypeE @39
    _ZN9ImageLite14ImageRGBbufferC2ERKNS_9ImageDataERKNS_5IRECTIiEENS_10BufferTypeE @40
    _ZN9ImageLite14ImageRGBbufferC2ERKNS_9ImageDataERKNS_6IPOINTIiEENS_10BufferTypeE @41
    _ZN9ImageLite14ImageRGBbufferC2ERKSt17basic_string_viewIcSt11char_traitsIcEENS_9ImageTypeE @42
    _ZN9ImageLite14ImageRGBbufferC2ERKSt17basic_string_viewIcSt11char_traitsIcEEjjjNS_10BufferTypeE @43
    _ZN9ImageLite14ImageRGBbufferC2ERKSt6vectorIhSaIhEEjjjNS_10BufferTypeE @44
    _ZN9ImageLite14ImageRGBbufferC2Ev @45
    _ZN9ImageLite14ImageRGBbufferD1Ev @46
    _ZN9ImageLite14ImageRGBbufferD2Ev @47
    _ZN9ImageLite5MJpeg5clearEv @48
    _ZN9ImageLite5MJpeg5parseEPKciRSt6vectorIhSaIhEERi @49
    _ZN9ImageLite5MJpeg6streamEPKcjSt8functionIFbRKSt6vectorIhSaIhEEiiEE @50
    _ZN9ImageLite5MJpegC1Ev @51
    _ZN9ImageLite5MJpegC2Ev @52
    _ZN9ImageLite7JpegGpu13NVJpegDecoder12cudaGetErrorEj @53
    _ZN9ImageLite7JpegGpu13NVJpegDecoder13imgdecompressERKSt6vectorIhSaIhEERS4_ @54
    _ZN9ImageLite7JpegGpu13NVJpegDecoder4initEv @55
    _ZN9ImageLite7JpegGpu13NVJpegDecoder5cleanEv @56
    _ZN9ImageLite7JpegGpu13NVJpegDecoder5clearEv @57
    _ZN9ImageLite7JpegGpu13NVJpegDecoder7imginfoERKSt6vectorIhSaIhEE @58
    _ZN9ImageLite7JpegGpu13NVJpegDecoder7imgreadERKNSt7__cxx1112basic_stringIcSt11char_traitsIcESaIcEEERSt6vectorIhSaIhEE @59
    _ZN9ImageLite7JpegGpu13NVJpegDecoder8imgallocEv @60
    _ZN9ImageLite7JpegGpu13NVJpegDecoder8isenableEv @61
    _ZN9ImageLite7JpegGpu13NVJpegDecoder9imgbufferERSt6vectorIhSaIhEE @62
    _ZN9ImageLite7JpegGpu13NVJpegDecoder9imgstreamERKSt6vectorIhSaIhEERS4_ @63
    _ZN9ImageLite7JpegGpu13NVJpegDecoderC1Ei @64
    _ZN9ImageLite7JpegGpu13NVJpegDecoderC1Ev @65
    _ZN9ImageLite7JpegGpu13NVJpegDecoderC2Ei @66
    _ZN9ImageLite7JpegGpu13NVJpegDecoderC2Ev @67
    _ZN9ImageLite7JpegGpu13NVJpegDecoderD1Ev @68
    _ZN9ImageLite7JpegGpu13NVJpegDecoderD2Ev @69
    _ZN9ImageLite8Formater11CONVERT_BMPERKSt6vectorIhSaIhEERS3_jjjjjjPv @70
    _ZN9ImageLite8Formater13CONVERT_TO_BWERKSt6vectorIhSaIhEERS3_jjjjjjPv @71
    _ZN9ImageLite8Formater13igetrectangleERKNS_9ImageDataERS1_RKNS_5IRECTIiEE @72
    _ZN9ImageLite8Formater15CONVERT_TO_GREYERKSt6vectorIhSaIhEERS3_jjjjjjPv @73
    _ZN9ImageLite8Formater16CONVERT_TO_NOPADERKSt6vectorIhSaIhEERS3_jjjjjjPv @74
    _ZN9ImageLite8Formater16CONVERT_TO_SEPIAERKSt6vectorIhSaIhEERS3_jjjjjjPv @75
    _ZN9ImageLite8Formater16STREAM_LUA_TABLEERKSt6vectorIhSaIhEERS3_jjjjjjPv @76
    _ZN9ImageLite8Formater18CONVERT_FROM_NOPADERKSt6vectorIhSaIhEERS3_jjjjjjPv @77
    _ZN9ImageLite8Formater7iresizeERKNS_9ImageDataERS1_RKNS_6IPOINTIiEE @78
    _ZN9ImageLite8Formater7ivtableE @79 DATA
    _ZN9ImageLite8Formater8icompareERKNS_9ImageDataERKNS_10ImageDataPERKNS_5IRECTIiEEh @80
    _ZN9ImageLite8Formater8icompareERKNS_9ImageDataES3_RKNS_5IRECTIiEEh @81
    _ZN9ImageLite8Formater8iconvertESt8functionIFvRKSt6vectorIhSaIhEERS4_jjjjjjPvEES6_S7_jjjjS8_ @82
    _ZN9ImageLite8Formater9itostreamESt8functionIFvRKSt6vectorIhSaIhEERS4_jjjjjjPvEES6_jjjRSt14basic_ofstreamIcSt11char_traitsIcEE @83
    _ZNK9ImageLite7JpegGpu8ErrorCat4nameEv @84
    _ZNK9ImageLite7JpegGpu8ErrorCat7messageB5cxx11Ei @85
    _ZNK9ImageLite8ErrorCat4nameEv @86
    _ZNK9ImageLite8ErrorCat7messageB5cxx11Ei @87
    _ZNK9ImageLite8ErrorCat7messageENS_7ErrorIdE @88
    _ZTIN9ImageLite7JpegGpu8ErrorCatE @89 DATA
    _ZTIN9ImageLite8ErrorCatE @90 DATA
    _ZTVN9ImageLite7JpegGpu8ErrorCatE @91 DATA
    _ZTVN9ImageLite8ErrorCatE @92 DATA
