EXPORTS
    LODEPNG_VERSION_STRING @1 DATA
    _Z13lodepng_crc32PKhy @2
    _Z14lodepng_decodePPhPjS1_P12LodePNGStatePKhy @3
    _Z14lodepng_encodePPhPyPKhjjP12LodePNGState @4
    _Z15lodepng_convertPhPKhPK16LodePNGColorModeS4_jj @5
    _Z15lodepng_deflatePPhPyPKhyPK23LodePNGCompressSettings @6
    _Z15lodepng_get_bppPK16LodePNGColorMode @7
    _Z15lodepng_inflatePPhPyPKhyPK25LodePNGDecompressSettings @8
    _Z15lodepng_inspectPjS_P12LodePNGStatePKhy @9
    _Z15lodepng_set_iccP11LodePNGInfoPKcPKhj @10
    _Z16lodepng_add_textP11LodePNGInfoPKcS2_ @11
    _Z16lodepng_decode24PPhPjS1_PKhy @12
    _Z16lodepng_decode32PPhPjS1_PKhy @13
    _Z16lodepng_encode24PPhPyPKhjj @14
    _Z16lodepng_encode32PPhPyPKhjj @15
    _Z17auto_choose_colorP16LodePNGColorModePKS_PK17LodePNGColorStats @16
    _Z17lodepng_add_itextP11LodePNGInfoPKcS2_S2_S2_ @17
    _Z17lodepng_clear_iccP11LodePNGInfo @18
    _Z17lodepng_info_copyP11LodePNGInfoPKS_ @19
    _Z17lodepng_info_initP11LodePNGInfo @20
    _Z17lodepng_load_filePPhPyPKc @21
    _Z17lodepng_save_filePKhyPKc @22
    _Z18lodepng_chunk_dataPh @23
    _Z18lodepng_chunk_findPhPKhPKc @24
    _Z18lodepng_chunk_nextPh @25
    _Z18lodepng_chunk_typePcPKh @26
    _Z18lodepng_clear_textP11LodePNGInfo @27
    _Z18lodepng_error_textj @28
    _Z18lodepng_state_copyP12LodePNGStatePKS_ @29
    _Z18lodepng_state_initP12LodePNGState @30
    _Z19lodepng_clear_itextP11LodePNGInfo @31
    _Z19lodepng_convert_rgbPjS_S_jjjPK16LodePNGColorModeS2_ @32
    _Z19lodepng_decode_filePPhPjS1_PKc16LodePNGColorTypej @33
    _Z19lodepng_encode_filePKcPKhjj16LodePNGColorTypej @34
    _Z19lodepng_palette_addP16LodePNGColorModehhhh @35
    _Z20lodepng_chunk_appendPPhPyPKh @36
    _Z20lodepng_chunk_createPPhPyjPKcPKh @37
    _Z20lodepng_chunk_lengthPKh @38
    _Z20lodepng_get_channelsPK16LodePNGColorMode @39
    _Z20lodepng_get_raw_sizejjPK16LodePNGColorMode @40
    _Z20lodepng_info_cleanupP11LodePNGInfo @41
    _Z20lodepng_read32bitIntPKh @42
    _Z21lodepng_chunk_privatePKh @43
    _Z21lodepng_decode24_filePPhPjS1_PKc @44
    _Z21lodepng_decode32_filePPhPjS1_PKc @45
    _Z21lodepng_decode_memoryPPhPjS1_PKhy16LodePNGColorTypej @46
    _Z21lodepng_encode24_filePKcPKhjj @47
    _Z21lodepng_encode32_filePKcPKhjj @48
    _Z21lodepng_encode_memoryPPhPyPKhjj16LodePNGColorTypej @49
    _Z21lodepng_inspect_chunkP12LodePNGStateyPKhy @50
    _Z21lodepng_is_alpha_typePK16LodePNGColorMode @51
    _Z21lodepng_palette_clearP16LodePNGColorMode @52
    _Z21lodepng_state_cleanupP12LodePNGState @53
    _Z21lodepng_zlib_compressPPhPyPKhyPK23LodePNGCompressSettings @54
    _Z22lodepng_can_have_alphaPK16LodePNGColorMode @55
    _Z23lodepng_chunk_ancillaryPKh @56
    _Z23lodepng_chunk_check_crcPKh @57
    _Z23lodepng_color_mode_copyP16LodePNGColorModePKS_ @58
    _Z23lodepng_color_mode_initP16LodePNGColorMode @59
    _Z23lodepng_color_mode_make16LodePNGColorTypej @60
    _Z23lodepng_is_palette_typePK16LodePNGColorMode @61
    _Z23lodepng_zlib_decompressPPhPyPKhyPK25LodePNGDecompressSettings @62
    _Z24lodepng_chunk_data_constPKh @63
    _Z24lodepng_chunk_find_constPKhS0_PKc @64
    _Z24lodepng_chunk_next_constPKh @65
    _Z24lodepng_chunk_safetocopyPKh @66
    _Z24lodepng_color_stats_initP17LodePNGColorStats @67
    _Z24lodepng_get_raw_size_lctjj16LodePNGColorTypej @68
    _Z25lodepng_chunk_type_equalsPKhPKc @69
    _Z25lodepng_has_palette_alphaPK16LodePNGColorMode @70
    _Z25lodepng_is_greyscale_typePK16LodePNGColorMode @71
    _Z26lodepng_chunk_generate_crcPh @72
    _Z26lodepng_color_mode_cleanupP16LodePNGColorMode @73
    _Z27lodepng_compute_color_statsP17LodePNGColorStatsPKhjjPK16LodePNGColorMode @74
    _Z28lodepng_huffman_code_lengthsPjPKjyj @75
    _Z29lodepng_decoder_settings_initP22LodePNGDecoderSettings @76
    _Z29lodepng_encoder_settings_initP22LodePNGEncoderSettings @77
    _Z30lodepng_compress_settings_initP23LodePNGCompressSettings @78
    _Z32lodepng_decompress_settings_initP25LodePNGDecompressSettings @79
    _ZN12LodePNGStateD0Ev @80
    _ZN12LodePNGStateD1Ev @81
    _ZN6Helper6Intrin4initEv @82
    _ZN6Helper6Intrin9print128iIhEEvDv2_x @83
    _ZN6Helper6Intrin9print128iIjEEvDv2_x @84
    _ZN6Helper6Intrin9print128iItEEvDv2_x @85
    _ZN6Helper6Intrin9print128iIyEEvDv2_x @86
    _ZN6Helper6IntrinC1Ev @87
    _ZN6Helper6IntrinC2Ev @88
    _ZN7TooJpeg9writeJpegERKSt6vectorIhSaIhEEttRS2_NS_9inputTypeEhbPKc @89
    _ZN7lodepng10decompressERSt6vectorIhSaIhEEPKhyRK25LodePNGDecompressSettings @90
    _ZN7lodepng10decompressERSt6vectorIhSaIhEERKS2_RK25LodePNGDecompressSettings @91
    _ZN7lodepng5StateC1ERKS0_ @92
    _ZN7lodepng5StateC1Ev @93
    _ZN7lodepng5StateC2ERKS0_ @94
    _ZN7lodepng5StateC2Ev @95
    _ZN7lodepng5StateD0Ev @96
    _ZN7lodepng5StateD1Ev @97
    _ZN7lodepng5StateD2Ev @98
    _ZN7lodepng5StateaSERKS0_ @99
    _ZN7lodepng6decodeERSt6vectorIhSaIhEERjS4_PKhy16LodePNGColorTypej @100
    _ZN7lodepng6decodeERSt6vectorIhSaIhEERjS4_RKNSt7__cxx1112basic_stringIcSt11char_traitsIcESaIcEEE16LodePNGColorTypej @101
    _ZN7lodepng6decodeERSt6vectorIhSaIhEERjS4_RKS2_16LodePNGColorTypej @102
    _ZN7lodepng6decodeERSt6vectorIhSaIhEERjS4_RNS_5StateEPKhy @103
    _ZN7lodepng6decodeERSt6vectorIhSaIhEERjS4_RNS_5StateERKS2_ @104
    _ZN7lodepng6encodeERKNSt7__cxx1112basic_stringIcSt11char_traitsIcESaIcEEEPKhjj16LodePNGColorTypej @105
    _ZN7lodepng6encodeERKNSt7__cxx1112basic_stringIcSt11char_traitsIcESaIcEEERKSt6vectorIhSaIhEEjj16LodePNGColorTypej @106
    _ZN7lodepng6encodeERSt6vectorIhSaIhEEPKhjj16LodePNGColorTypej @107
    _ZN7lodepng6encodeERSt6vectorIhSaIhEEPKhjjRNS_5StateE @108
    _ZN7lodepng6encodeERSt6vectorIhSaIhEERKS2_jj16LodePNGColorTypej @109
    _ZN7lodepng6encodeERSt6vectorIhSaIhEERKS2_jjRNS_5StateE @110
    _ZN7lodepng8compressERSt6vectorIhSaIhEEPKhyRK23LodePNGCompressSettings @111
    _ZN7lodepng8compressERSt6vectorIhSaIhEERKS2_RK23LodePNGCompressSettings @112
    _ZN7lodepng9load_fileERSt6vectorIhSaIhEERKNSt7__cxx1112basic_stringIcSt11char_traitsIcESaIcEEE @113
    _ZN7lodepng9save_fileERKSt6vectorIhSaIhEERKNSt7__cxx1112basic_stringIcSt11char_traitsIcESaIcEEE @114
    _ZN9ImageLite11JpegGpuAVX213tobuffer_avx2ERKSt6vectorIhSaIhEES5_S5_iRNS_7JpegGpu13NVJpegDecoder10gpuimage_tERS3_RSt10error_code @115
    _ZN9ImageLite11JpegGpuAVX217initavx2_internalEv @116
    _ZN9ImageLite13ICOMPARE_avx2ERKSt6vectorIhSaIhEES4_jjjjjh @117
    _ZN9ImageLite14ImageRGBbuffer10getimgtypeERKSt17basic_string_viewIcSt11char_traitsIcEE @118
    _ZN9ImageLite14ImageRGBbuffer11_set_strideEv @119
    _ZN9ImageLite14ImageRGBbuffer12getbmpheaderEv @120
    _ZN9ImageLite14ImageRGBbuffer16getbmpfileheaderEj @121
    _ZN9ImageLite14ImageRGBbuffer17_check_buffer_posEj @122
    _ZN9ImageLite14ImageRGBbuffer2bwEv @123
    _ZN9ImageLite14ImageRGBbuffer4greyEv @124
    _ZN9ImageLite14ImageRGBbuffer4loadERKSt17basic_string_viewIcSt11char_traitsIcEENS_9ImageTypeE @125
    _ZN9ImageLite14ImageRGBbuffer4saveERKSt17basic_string_viewIcSt11char_traitsIcEENS_9ImageTypeE @126
    _ZN9ImageLite14ImageRGBbuffer5_initINS_9ImageDataEEEvRKT_RS2_NS_10BufferTypeE @127
    _ZN9ImageLite14ImageRGBbuffer5emptyEv @128
    _ZN9ImageLite14ImageRGBbuffer5ispadEi @129
    _ZN9ImageLite14ImageRGBbuffer5sepiaEv @130
    _ZN9ImageLite14ImageRGBbuffer6getbmpEv @131
    _ZN9ImageLite14ImageRGBbuffer6getpadEv @132
    _ZN9ImageLite14ImageRGBbuffer6getposERKNS_6IPOINTIiEE @133
    _ZN9ImageLite14ImageRGBbuffer6getposEii @134
    _ZN9ImageLite14ImageRGBbuffer7getsizeENS_8SizeTypeE @135
    _ZN9ImageLite14ImageRGBbuffer8getpixelERKNS_6IPOINTIiEE @136
    _ZN9ImageLite14ImageRGBbuffer8getpixelEi @137
    _ZN9ImageLite14ImageRGBbuffer8getpixelEii @138
    _ZN9ImageLite14ImageRGBbuffer8icompareERKNS_9ImageDataERKNS_5IRECTIiEEh @139
    _ZN9ImageLite14ImageRGBbuffer8icompareERKNS_9ImageDataEh @140
    _ZN9ImageLite14ImageRGBbuffer8icompareERNS_10ImageTableEh @141
    _ZN9ImageLite14ImageRGBbuffer8icompareERS0_RKNS_5IRECTIiEEh @142
    _ZN9ImageLite14ImageRGBbuffer8icompareERS0_h @143
    _ZN9ImageLite14ImageRGBbuffer8load_rawERKSt17basic_string_viewIcSt11char_traitsIcEEjjj @144
    _ZN9ImageLite14ImageRGBbuffer9getbufferEv @145
    _ZN9ImageLite14ImageRGBbufferC1EPKhjjjjNS_10BufferTypeE @146
    _ZN9ImageLite14ImageRGBbufferC1ERKNS_10ImageTableENS_10BufferTypeE @147
    _ZN9ImageLite14ImageRGBbufferC1ERKNS_9ImageDataENS_10BufferTypeE @148
    _ZN9ImageLite14ImageRGBbufferC1ERKNS_9ImageDataERKNS_5IRECTIiEENS_10BufferTypeE @149
    _ZN9ImageLite14ImageRGBbufferC1ERKNS_9ImageDataERKNS_6IPOINTIiEENS_10BufferTypeE @150
    _ZN9ImageLite14ImageRGBbufferC1ERKSt17basic_string_viewIcSt11char_traitsIcEENS_9ImageTypeE @151
    _ZN9ImageLite14ImageRGBbufferC1ERKSt17basic_string_viewIcSt11char_traitsIcEEjjjNS_10BufferTypeE @152
    _ZN9ImageLite14ImageRGBbufferC1ERKSt6vectorIhSaIhEEjjjNS_10BufferTypeE @153
    _ZN9ImageLite14ImageRGBbufferC1Ev @154
    _ZN9ImageLite14ImageRGBbufferC2EPKhjjjjNS_10BufferTypeE @155
    _ZN9ImageLite14ImageRGBbufferC2ERKNS_10ImageTableENS_10BufferTypeE @156
    _ZN9ImageLite14ImageRGBbufferC2ERKNS_9ImageDataENS_10BufferTypeE @157
    _ZN9ImageLite14ImageRGBbufferC2ERKNS_9ImageDataERKNS_5IRECTIiEENS_10BufferTypeE @158
    _ZN9ImageLite14ImageRGBbufferC2ERKNS_9ImageDataERKNS_6IPOINTIiEENS_10BufferTypeE @159
    _ZN9ImageLite14ImageRGBbufferC2ERKSt17basic_string_viewIcSt11char_traitsIcEENS_9ImageTypeE @160
    _ZN9ImageLite14ImageRGBbufferC2ERKSt17basic_string_viewIcSt11char_traitsIcEEjjjNS_10BufferTypeE @161
    _ZN9ImageLite14ImageRGBbufferC2ERKSt6vectorIhSaIhEEjjjNS_10BufferTypeE @162
    _ZN9ImageLite14ImageRGBbufferC2Ev @163
    _ZN9ImageLite14ImageRGBbufferD1Ev @164
    _ZN9ImageLite14ImageRGBbufferD2Ev @165
    _ZN9ImageLite14foreach_nativeEPKciiRiS2_RNS_5MJpeg9StageTypeE @166
    _ZN9ImageLite15ICOMPARE_nativeERKSt6vectorIhSaIhEES4_jjjjjh @167
    _ZN9ImageLite15make_error_codeENS_7ErrorIdE @168
    _ZN9ImageLite18CONVERT_BMP_nativeERKSt6vectorIhSaIhEERS2_jjjjjjPv @169
    _ZN9ImageLite20CONVERT_TO_BW_nativeERKSt6vectorIhSaIhEERS2_jjjjjjPv @170
    _ZN9ImageLite22CONVERT_TO_GREY_nativeERKSt6vectorIhSaIhEERS2_jjjjjjPv @171
    _ZN9ImageLite23CONVERT_TO_NOPAD_nativeERKSt6vectorIhSaIhEERS2_jjjjjjPv @172
    _ZN9ImageLite23CONVERT_TO_SEPIA_nativeERKSt6vectorIhSaIhEERS2_jjjjjjPv @173
    _ZN9ImageLite23STREAM_LUA_TABLE_nativeERKSt6vectorIhSaIhEERS2_jjjjjjPv @174
    _ZN9ImageLite25CONVERT_FROM_NOPAD_nativeERKSt6vectorIhSaIhEERS2_jjjjjjPv @175
    _ZN9ImageLite5MJpeg5parseEPKciRSt6vectorIhSaIhEERi @176
    _ZN9ImageLite5MJpeg6streamEPKcjSt8functionIFbRKSt6vectorIhSaIhEEEE @177
    _ZN9ImageLite5MJpegC1Ev @178
    _ZN9ImageLite5MJpegC2Ev @179
    _ZN9ImageLite7JpegGpu13NVJpegDecoder12cudaGetErrorEj @180
    _ZN9ImageLite7JpegGpu13NVJpegDecoder13imgdecompressERKSt6vectorIhSaIhEERS4_ @181
    _ZN9ImageLite7JpegGpu13NVJpegDecoder4initEv @182
    _ZN9ImageLite7JpegGpu13NVJpegDecoder5cleanEv @183
    _ZN9ImageLite7JpegGpu13NVJpegDecoder7imginfoERKSt6vectorIhSaIhEE @184
    _ZN9ImageLite7JpegGpu13NVJpegDecoder7imgreadERKNSt7__cxx1112basic_stringIcSt11char_traitsIcESaIcEEERSt6vectorIhSaIhEE @185
    _ZN9ImageLite7JpegGpu13NVJpegDecoder8imgallocEv @186
    _ZN9ImageLite7JpegGpu13NVJpegDecoder8isenableEv @187
    _ZN9ImageLite7JpegGpu13NVJpegDecoder9imgbufferERSt6vectorIhSaIhEE @188
    _ZN9ImageLite7JpegGpu13NVJpegDecoder9imgstreamERKSt6vectorIhSaIhEERS4_ @189
    _ZN9ImageLite7JpegGpu13NVJpegDecoderC1Ei @190
    _ZN9ImageLite7JpegGpu13NVJpegDecoderC1Ev @191
    _ZN9ImageLite7JpegGpu13NVJpegDecoderC2Ei @192
    _ZN9ImageLite7JpegGpu13NVJpegDecoderC2Ev @193
    _ZN9ImageLite7JpegGpu13NVJpegDecoderD1Ev @194
    _ZN9ImageLite7JpegGpu13NVJpegDecoderD2Ev @195
    _ZN9ImageLite7JpegGpu15make_error_codeENS0_7ErrorIdE @196
    _ZN9ImageLite7JpegGpu15tobuffer_nativeERKSt6vectorIhSaIhEES5_S5_iRNS0_13NVJpegDecoder10gpuimage_tERS3_RSt10error_code @197
    _ZN9ImageLite7JpegGpu7iserrorI9cudaErrorEEvT_PKci @198
    _ZN9ImageLite7JpegGpu8ErrorCatD0Ev @199
    _ZN9ImageLite7JpegGpu8ErrorCatD1Ev @200
    _ZN9ImageLite7JpegGpu8geterrorB5cxx11Ei @201
    _ZN9ImageLite7JpegGpu9geterrorcEi @202
    _ZN9ImageLite7JpegGpu9iserrorEcI14nvjpegStatus_tEEvRSt10error_codeT_PKci @203
    _ZN9ImageLite7JpegGpu9iserrorEcI9cudaErrorEEvRSt10error_codeT_PKci @204
    _ZN9ImageLite8ErrorCatD0Ev @205
    _ZN9ImageLite8ErrorCatD1Ev @206
    _ZN9ImageLite8Formater11CONVERT_BMPERKSt6vectorIhSaIhEERS3_jjjjjjPv @207
    _ZN9ImageLite8Formater13CONVERT_TO_BWERKSt6vectorIhSaIhEERS3_jjjjjjPv @208
    _ZN9ImageLite8Formater13igetrectangleERKNS_9ImageDataERS1_RKNS_5IRECTIiEE @209
    _ZN9ImageLite8Formater15CONVERT_TO_GREYERKSt6vectorIhSaIhEERS3_jjjjjjPv @210
    _ZN9ImageLite8Formater16CONVERT_TO_NOPADERKSt6vectorIhSaIhEERS3_jjjjjjPv @211
    _ZN9ImageLite8Formater16CONVERT_TO_SEPIAERKSt6vectorIhSaIhEERS3_jjjjjjPv @212
    _ZN9ImageLite8Formater16STREAM_LUA_TABLEERKSt6vectorIhSaIhEERS3_jjjjjjPv @213
    _ZN9ImageLite8Formater18CONVERT_FROM_NOPADERKSt6vectorIhSaIhEERS3_jjjjjjPv @214
    _ZN9ImageLite8Formater7iresizeERKNS_9ImageDataERS1_RKNS_6IPOINTIiEE @215
    _ZN9ImageLite8Formater7ivtableE @216 DATA
    _ZN9ImageLite8Formater8icompareERKNS_9ImageDataERKNS_10ImageDataPERKNS_5IRECTIiEEh @217
    _ZN9ImageLite8Formater8icompareERKNS_9ImageDataES3_RKNS_5IRECTIiEEh @218
    _ZN9ImageLite8Formater8iconvertESt8functionIFvRKSt6vectorIhSaIhEERS4_jjjjjjPvEES6_S7_jjjjS8_ @219
    _ZN9ImageLite8Formater9itostreamESt8functionIFvRKSt6vectorIhSaIhEERS4_jjjjjjPvEES6_jjjRSt14basic_ofstreamIcSt11char_traitsIcEE @220
    _ZN9ImageLite8geterrorEi @221
    _ZN9ImageLite9MJpegAVX212foreach_avx2EPKciiRiS3_RNS_5MJpeg9StageTypeE @222
    _ZN9ImageLite9MJpegAVX217initavx2_internalEv @223
    _ZNK6Helper6Intrin8getcpuidEv @224
    _ZNK9ImageLite7JpegGpu8ErrorCat4nameEv @225
    _ZNK9ImageLite7JpegGpu8ErrorCat7messageB5cxx11Ei @226
    _ZNK9ImageLite8ErrorCat4nameEv @227
    _ZNK9ImageLite8ErrorCat7messageB5cxx11Ei @228
    _ZNK9ImageLite8ErrorCat7messageENS_7ErrorIdE @229
    _ZNSt12system_errorC1ESt10error_code @230
    _ZNSt12system_errorC1ESt10error_codePKc @231
    _ZNSt12system_errorC1ESt10error_codeRKNSt7__cxx1112basic_stringIcSt11char_traitsIcESaIcEEE @232
    _ZNSt14_Function_base13_Base_managerIPFvRKSt6vectorIhSaIhEERS3_jjjjjjPvEE10_M_managerERSt9_Any_dataRKSB_St18_Manager_operation @233
    _ZNSt17_Function_handlerIFvRKSt6vectorIhSaIhEERS2_jjjjjjPvEPS7_E9_M_invokeERKSt9_Any_dataS4_S5_OjSD_SD_SD_SD_SD_OS6_ @234
    _ZNSt6vectorIhSaIhEE13_M_assign_auxIPKcEEvT_S5_St20forward_iterator_tag @235
    _ZNSt6vectorIhSaIhEE13_M_assign_auxIPKhEEvT_S5_St20forward_iterator_tag @236
    _ZNSt6vectorIhSaIhEE15_M_range_insertIPKcEEvN9__gnu_cxx17__normal_iteratorIPhS1_EET_S9_St20forward_iterator_tag @237
    _ZNSt6vectorIhSaIhEE15_M_range_insertIPhEEvN9__gnu_cxx17__normal_iteratorIS3_S1_EET_S7_St20forward_iterator_tag @238
    _ZNSt6vectorIhSaIhEE17_M_default_appendEy @239
    _ZNSt6vectorIhSaIhEE17_M_realloc_insertIJhEEEvN9__gnu_cxx17__normal_iteratorIPhS1_EEDpOT_ @240
    _ZNSt6vectorIhSaIhEE7reserveEy @241
    _ZNSt6vectorIhSaIhEEaSERKS1_ @242
    _ZNSt7__cxx1115basic_stringbufIcSt11char_traitsIcESaIcEED1Ev @243
    _ZTI12LodePNGState @244 DATA
    _ZTIFvRKSt6vectorIhSaIhEERS1_jjjjjjPvE @245 DATA
    _ZTIN7lodepng5StateE @246 DATA
    _ZTIN9ImageLite7JpegGpu8ErrorCatE @247 DATA
    _ZTIN9ImageLite8ErrorCatE @248 DATA
    _ZTINSt3_V214error_categoryE @249 DATA
    _ZTIPFvRKSt6vectorIhSaIhEERS1_jjjjjjPvE @250 DATA
    _ZTISt12system_error @251 DATA
    _ZTISt13runtime_error @252 DATA
    _ZTISt9exception @253 DATA
    _ZTS12LodePNGState @254 DATA
    _ZTSFvRKSt6vectorIhSaIhEERS1_jjjjjjPvE @255 DATA
    _ZTSN7lodepng5StateE @256 DATA
    _ZTSN9ImageLite7JpegGpu8ErrorCatE @257 DATA
    _ZTSN9ImageLite8ErrorCatE @258 DATA
    _ZTSNSt3_V214error_categoryE @259 DATA
    _ZTSPFvRKSt6vectorIhSaIhEERS1_jjjjjjPvE @260 DATA
    _ZTSSt12system_error @261 DATA
    _ZTSSt13runtime_error @262 DATA
    _ZTSSt9exception @263 DATA
    _ZTV12LodePNGState @264 DATA
    _ZTVN7lodepng5StateE @265 DATA
    _ZTVN9ImageLite7JpegGpu8ErrorCatE @266 DATA
    _ZTVN9ImageLite8ErrorCatE @267 DATA
    lodepng_default_compress_settings @268 DATA
    lodepng_default_decompress_settings @269 DATA
